target datalayout = "e-m:e-p270:32:32-p271:32:32-p272:64:64-i64:64-i128:128-f80:128-n8:16:32:64-S128"
target triple = "x86_64-pc-linux-gnu"

%struct.lean_object = type { i32, i32 }

; Function Attrs: inlinehint nounwind uwtable
define internal zeroext i8 @lean_ptr_tag(ptr noundef %0) #3 {
  %2 = alloca ptr, align 8
  store ptr %0, ptr %2, align 8, !tbaa !4
  %3 = load ptr, ptr %2, align 8, !tbaa !4
  %4 = getelementptr inbounds nuw %struct.lean_object, ptr %3, i32 0, i32 1
  %5 = load i32, ptr %4, align 4
  %6 = lshr i32 %5, 24
  %7 = trunc i32 %6 to i8
  ret i8 %7
}

; Function Attrs: inlinehint nounwind uwtable
define internal i32 @lean_obj_tag(ptr noundef %0) #3 {
  %2 = alloca i32, align 4
  %3 = alloca ptr, align 8
  store ptr %0, ptr %3, align 8, !tbaa !4
  %4 = load ptr, ptr %3, align 8, !tbaa !4
  %5 = call zeroext i1 @lean_is_scalar(ptr noundef %4)
  br i1 %5, label %6, label %10

6:                                                ; preds = %1
  %7 = load ptr, ptr %3, align 8, !tbaa !4
  %8 = call i64 @lean_unbox(ptr noundef %7)
  %9 = trunc i64 %8 to i32
  store i32 %9, ptr %2, align 4
  br label %14

10:                                               ; preds = %1
  %11 = load ptr, ptr %3, align 8, !tbaa !4
  %12 = call zeroext i8 @lean_ptr_tag(ptr noundef %11)
  %13 = zext i8 %12 to i32
  store i32 %13, ptr %2, align 4
  br label %14

14:                                               ; preds = %10, %6
  %15 = load i32, ptr %2, align 4
  ret i32 %15
}

; Function Attrs: alwaysinline nounwind uwtable
define internal void @lean_dec_ref(ptr noundef %0) #0 {
  %2 = alloca ptr, align 8
  store ptr %0, ptr %2, align 8, !tbaa !4
  %3 = load ptr, ptr %2, align 8, !tbaa !4
  %4 = getelementptr inbounds nuw %struct.lean_object, ptr %3, i32 0, i32 0
  %5 = load i32, ptr %4, align 4, !tbaa !19
  %6 = icmp sgt i32 %5, 1
  %7 = zext i1 %6 to i32
  %8 = sext i32 %7 to i64
  %9 = call i64 @llvm.expect.i64(i64 %8, i64 1)
  %10 = icmp ne i64 %9, 0
  br i1 %10, label %11, label %16

11:                                               ; preds = %1
  %12 = load ptr, ptr %2, align 8, !tbaa !4
  %13 = getelementptr inbounds nuw %struct.lean_object, ptr %12, i32 0, i32 0
  %14 = load i32, ptr %13, align 4, !tbaa !19
  %15 = add i32 %14, -1
  store i32 %15, ptr %13, align 4, !tbaa !19
  br label %24

16:                                               ; preds = %1
  %17 = load ptr, ptr %2, align 8, !tbaa !4
  %18 = getelementptr inbounds nuw %struct.lean_object, ptr %17, i32 0, i32 0
  %19 = load i32, ptr %18, align 4, !tbaa !19
  %20 = icmp ne i32 %19, 0
  br i1 %20, label %21, label %23

21:                                               ; preds = %16
  %22 = load ptr, ptr %2, align 8, !tbaa !4
  call void @lean_dec_ref_cold(ptr noundef %22)
  br label %23

23:                                               ; preds = %21, %16
  br label %24

24:                                               ; preds = %23, %11
  ret void
}

; Function Attrs: alwaysinline nounwind uwtable
define internal zeroext i1 @lean_is_scalar(ptr noundef %0) #0 {
  %2 = alloca ptr, align 8
  store ptr %0, ptr %2, align 8, !tbaa !4
  %3 = load ptr, ptr %2, align 8, !tbaa !4
  %4 = ptrtoint ptr %3 to i64
  %5 = and i64 %4, 1
  %6 = icmp eq i64 %5, 1
  ret i1 %6
}

; Function Attrs: inlinehint nounwind uwtable
define internal ptr @lean_box(i64 noundef %0) #3 {
  %2 = alloca i64, align 8
  store i64 %0, ptr %2, align 8, !tbaa !13
  %3 = load i64, ptr %2, align 8, !tbaa !13
  %4 = shl i64 %3, 1
  %5 = or i64 %4, 1
  %6 = inttoptr i64 %5 to ptr
  ret ptr %6
}

; Function Attrs: nounwind uwtable
define zeroext i8 @l_Std_Tactic_BVDecide_LRAT_Internal_Assignment_removeAssignment(i8 noundef zeroext %0, i8 noundef zeroext %1) #1 {
  %3 = alloca i8, align 1
  %4 = alloca i8, align 1
  %5 = alloca i8, align 1
  %6 = alloca ptr, align 8
  %7 = alloca i8, align 1
  %8 = alloca i32, align 4
  %9 = alloca i8, align 1
  %10 = alloca i8, align 1
  %11 = alloca ptr, align 8
  %12 = alloca i8, align 1
  %13 = alloca i8, align 1
  %14 = alloca i8, align 1
  store i8 %0, ptr %4, align 1, !tbaa !8
  store i8 %1, ptr %5, align 1, !tbaa !8
  br label %15

15:                                               ; preds = %2
  %16 = load i8, ptr %4, align 1, !tbaa !8
  %17 = zext i8 %16 to i32
  %18 = icmp eq i32 %17, 0
  br i1 %18, label %19, label %33

19:                                               ; preds = %15
  call void @llvm.lifetime.start.p0(i64 8, ptr %6) #7
  %20 = load i8, ptr %5, align 1, !tbaa !8
  %21 = zext i8 %20 to i64
  %22 = call ptr @lean_box(i64 noundef %21)
  store ptr %22, ptr %6, align 8, !tbaa !4
  %23 = load ptr, ptr %6, align 8, !tbaa !4
  %24 = call i32 @lean_obj_tag(ptr noundef %23)
  switch i32 %24, label %29 [
    i32 1, label %25
    i32 3, label %27
  ]

25:                                               ; preds = %19
  call void @llvm.lifetime.start.p0(i64 1, ptr %7) #7
  store i8 3, ptr %7, align 1, !tbaa !8
  %26 = load i8, ptr %7, align 1, !tbaa !8
  store i8 %26, ptr %3, align 1
  store i32 1, ptr %8, align 4
  call void @llvm.lifetime.end.p0(i64 1, ptr %7) #7
  br label %32

27:                                               ; preds = %19
  call void @llvm.lifetime.start.p0(i64 1, ptr %9) #7
  store i8 3, ptr %9, align 1, !tbaa !8
  %28 = load i8, ptr %9, align 1, !tbaa !8
  store i8 %28, ptr %3, align 1
  store i32 1, ptr %8, align 4
  call void @llvm.lifetime.end.p0(i64 1, ptr %9) #7
  br label %32

29:                                               ; preds = %19
  call void @llvm.lifetime.start.p0(i64 1, ptr %10) #7
  %30 = load ptr, ptr %6, align 8, !tbaa !4
  call void @lean_dec(ptr noundef %30)
  store i8 0, ptr %10, align 1, !tbaa !8
  %31 = load i8, ptr %10, align 1, !tbaa !8
  store i8 %31, ptr %3, align 1
  store i32 1, ptr %8, align 4
  call void @llvm.lifetime.end.p0(i64 1, ptr %10) #7
  br label %32

32:                                               ; preds = %29, %27, %25
  call void @llvm.lifetime.end.p0(i64 8, ptr %6) #7
  br label %47

33:                                               ; preds = %15
  call void @llvm.lifetime.start.p0(i64 8, ptr %11) #7
  %34 = load i8, ptr %5, align 1, !tbaa !8
  %35 = zext i8 %34 to i64
  %36 = call ptr @lean_box(i64 noundef %35)
  store ptr %36, ptr %11, align 8, !tbaa !4
  %37 = load ptr, ptr %11, align 8, !tbaa !4
  %38 = call i32 @lean_obj_tag(ptr noundef %37)
  switch i32 %38, label %43 [
    i32 1, label %39
    i32 2, label %41
  ]

39:                                               ; preds = %33
  call void @llvm.lifetime.start.p0(i64 1, ptr %12) #7
  store i8 1, ptr %12, align 1, !tbaa !8
  %40 = load i8, ptr %12, align 1, !tbaa !8
  store i8 %40, ptr %3, align 1
  store i32 1, ptr %8, align 4
  call void @llvm.lifetime.end.p0(i64 1, ptr %12) #7
  br label %46

41:                                               ; preds = %33
  call void @llvm.lifetime.start.p0(i64 1, ptr %13) #7
  store i8 1, ptr %13, align 1, !tbaa !8
  %42 = load i8, ptr %13, align 1, !tbaa !8
  store i8 %42, ptr %3, align 1
  store i32 1, ptr %8, align 4
  call void @llvm.lifetime.end.p0(i64 1, ptr %13) #7
  br label %46

43:                                               ; preds = %33
  call void @llvm.lifetime.start.p0(i64 1, ptr %14) #7
  %44 = load ptr, ptr %11, align 8, !tbaa !4
  call void @lean_dec(ptr noundef %44)
  store i8 3, ptr %14, align 1, !tbaa !8
  %45 = load i8, ptr %14, align 1, !tbaa !8
  store i8 %45, ptr %3, align 1
  store i32 1, ptr %8, align 4
  call void @llvm.lifetime.end.p0(i64 1, ptr %14) #7
  br label %46

46:                                               ; preds = %43, %41, %39
  call void @llvm.lifetime.end.p0(i64 8, ptr %11) #7
  br label %47

47:                                               ; preds = %46, %32
  %48 = load i8, ptr %3, align 1
  ret i8 %48
}

; Function Attrs: alwaysinline nounwind uwtable
define internal void @lean_dec(ptr noundef %0) #0 {
  %2 = alloca ptr, align 8
  store ptr %0, ptr %2, align 8, !tbaa !4
  %3 = load ptr, ptr %2, align 8, !tbaa !4
  %4 = call zeroext i1 @lean_is_scalar(ptr noundef %3)
  br i1 %4, label %7, label %5

5:                                                ; preds = %1
  %6 = load ptr, ptr %2, align 8, !tbaa !4
  call void @lean_dec_ref(ptr noundef %6)
  br label %7

7:                                                ; preds = %5, %1
  ret void
}

; Function Attrs: inlinehint nounwind uwtable
define internal i64 @lean_unbox(ptr noundef %0) #3 {
  %2 = alloca ptr, align 8
  store ptr %0, ptr %2, align 8, !tbaa !4
  %3 = load ptr, ptr %2, align 8, !tbaa !4
  %4 = ptrtoint ptr %3 to i64
  %5 = lshr i64 %4, 1
  ret i64 %5
}

; Function Attrs: nounwind uwtable
define ptr @l_Std_Tactic_BVDecide_LRAT_Internal_Assignment_removeAssignment___boxed(ptr noundef %0, ptr noundef %1) #1 {
  %3 = alloca ptr, align 8
  %4 = alloca ptr, align 8
  %5 = alloca i8, align 1
  %6 = alloca i8, align 1
  %7 = alloca i8, align 1
  %8 = alloca ptr, align 8
  store ptr %0, ptr %3, align 8, !tbaa !4
  store ptr %1, ptr %4, align 8, !tbaa !4
  br label %9

9:                                                ; preds = %2
  call void @llvm.lifetime.start.p0(i64 1, ptr %5) #7
  call void @llvm.lifetime.start.p0(i64 1, ptr %6) #7
  call void @llvm.lifetime.start.p0(i64 1, ptr %7) #7
  call void @llvm.lifetime.start.p0(i64 8, ptr %8) #7
  %10 = load ptr, ptr %3, align 8, !tbaa !4
  %11 = call i64 @lean_unbox(ptr noundef %10)
  %12 = trunc i64 %11 to i8
  store i8 %12, ptr %5, align 1, !tbaa !8
  %13 = load ptr, ptr %3, align 8, !tbaa !4
  call void @lean_dec(ptr noundef %13)
  %14 = load ptr, ptr %4, align 8, !tbaa !4
  %15 = call i64 @lean_unbox(ptr noundef %14)
  %16 = trunc i64 %15 to i8
  store i8 %16, ptr %6, align 1, !tbaa !8
  %17 = load ptr, ptr %4, align 8, !tbaa !4
  call void @lean_dec(ptr noundef %17)
  %18 = load i8, ptr %5, align 1, !tbaa !8
  %19 = load i8, ptr %6, align 1, !tbaa !8
  %20 = call zeroext i8 @l_Std_Tactic_BVDecide_LRAT_Internal_Assignment_removeAssignment(i8 noundef zeroext %18, i8 noundef zeroext %19)
  store i8 %20, ptr %7, align 1, !tbaa !8
  %21 = load i8, ptr %7, align 1, !tbaa !8
  %22 = zext i8 %21 to i64
  %23 = call ptr @lean_box(i64 noundef %22)
  store ptr %23, ptr %8, align 8, !tbaa !4
  %24 = load ptr, ptr %8, align 8, !tbaa !4
  call void @llvm.lifetime.end.p0(i64 8, ptr %8) #7
  call void @llvm.lifetime.end.p0(i64 1, ptr %7) #7
  call void @llvm.lifetime.end.p0(i64 1, ptr %6) #7
  call void @llvm.lifetime.end.p0(i64 1, ptr %5) #7
  ret ptr %24
}